; ModuleID = '7/576.c'
source_filename = "7/576.c"
target datalayout = "e-m:e-p270:32:32-p271:32:32-p272:64:64-i64:64-f80:128-n8:16:32:64-S128"
target triple = "x86_64-pc-linux-gnu"

; Function Attrs: noinline nounwind uwtable
define dso_local void @main() #0 {
  %1 = alloca i32, align 4
  %2 = alloca i32, align 4
  %3 = alloca i32, align 4
  %4 = alloca i32, align 4
  %5 = alloca i32, align 4
  %6 = alloca i32, align 4
  %7 = alloca i32, align 4
  %8 = alloca i32, align 4
  %9 = alloca i32, align 4
  %10 = alloca [256 x i8], align 16
  %11 = alloca [256 x i8], align 16
  %12 = alloca [256 x i8], align 16
  %13 = alloca [256 x i8], align 16
  %14 = alloca [256 x i8], align 16
  store i32 1, i32* %3, align 4
  store i32 0, i32* %4, align 4
  store i32 0, i32* %5, align 4
  store i32 0, i32* %6, align 4
  store i32 0, i32* %7, align 4
  store i32 0, i32* %8, align 4
  store i32 0, i32* %9, align 4
  %15 = bitcast [256 x i8]* %10 to i8*
  call void @llvm.memset.p0i8.i64(i8* align 16 %15, i8 0, i64 256, i1 false)
  %16 = bitcast [256 x i8]* %11 to i8*
  call void @llvm.memset.p0i8.i64(i8* align 16 %16, i8 0, i64 256, i1 false)
  %17 = bitcast [256 x i8]* %12 to i8*
  call void @llvm.memset.p0i8.i64(i8* align 16 %17, i8 0, i64 256, i1 false)
  %18 = bitcast [256 x i8]* %13 to i8*
  call void @llvm.memset.p0i8.i64(i8* align 16 %18, i8 0, i64 256, i1 false)
  %19 = bitcast [256 x i8]* %14 to i8*
  call void @llvm.memset.p0i8.i64(i8* align 16 %19, i8 0, i64 256, i1 false)
  %20 = getelementptr inbounds [256 x i8], [256 x i8]* %11, i64 0, i64 0
  %21 = call i32 (i8*, ...) bitcast (i32 (...)* @gets to i32 (i8*, ...)*)(i8* %20)
  %22 = getelementptr inbounds [256 x i8], [256 x i8]* %10, i64 0, i64 0
  %23 = call i32 (i8*, ...) bitcast (i32 (...)* @gets to i32 (i8*, ...)*)(i8* %22)
  %24 = getelementptr inbounds [256 x i8], [256 x i8]* %14, i64 0, i64 0
  %25 = call i32 (i8*, ...) bitcast (i32 (...)* @gets to i32 (i8*, ...)*)(i8* %24)
  %26 = getelementptr inbounds [256 x i8], [256 x i8]* %10, i64 0, i64 0
  %27 = call i64 @strlen(i8* %26) #4
  %28 = trunc i64 %27 to i32
  store i32 %28, i32* %1, align 4
  %29 = getelementptr inbounds [256 x i8], [256 x i8]* %11, i64 0, i64 0
  %30 = call i64 @strlen(i8* %29) #4
  %31 = trunc i64 %30 to i32
  store i32 %31, i32* %2, align 4
  br label %32

32:                                               ; preds = %66, %0
  %33 = load i32, i32* %4, align 4
  %34 = load i32, i32* %2, align 4
  %35 = sub nsw i32 %34, 1
  %36 = icmp slt i32 %33, %35
  br i1 %36, label %37, label %69

37:                                               ; preds = %32
  store i32 0, i32* %6, align 4
  br label %38

38:                                               ; preds = %50, %37
  %39 = load i32, i32* %6, align 4
  %40 = load i32, i32* %1, align 4
  %41 = icmp slt i32 %39, %40
  br i1 %41, label %42, label %55

42:                                               ; preds = %38
  %43 = load i32, i32* %7, align 4
  %44 = sext i32 %43 to i64
  %45 = getelementptr inbounds [256 x i8], [256 x i8]* %11, i64 0, i64 %44
  %46 = load i8, i8* %45, align 1
  %47 = load i32, i32* %6, align 4
  %48 = sext i32 %47 to i64
  %49 = getelementptr inbounds [256 x i8], [256 x i8]* %12, i64 0, i64 %48
  store i8 %46, i8* %49, align 1
  br label %50

50:                                               ; preds = %42
  %51 = load i32, i32* %6, align 4
  %52 = add nsw i32 %51, 1
  store i32 %52, i32* %6, align 4
  %53 = load i32, i32* %7, align 4
  %54 = add nsw i32 %53, 1
  store i32 %54, i32* %7, align 4
  br label %38

55:                                               ; preds = %38
  %56 = load i32, i32* %3, align 4
  %57 = add nsw i32 %56, 1
  store i32 %57, i32* %3, align 4
  %58 = load i32, i32* %3, align 4
  store i32 %58, i32* %7, align 4
  %59 = load i32, i32* %8, align 4
  %60 = add nsw i32 %59, 1
  store i32 %60, i32* %8, align 4
  %61 = getelementptr inbounds [256 x i8], [256 x i8]* %12, i64 0, i64 0
  %62 = getelementptr inbounds [256 x i8], [256 x i8]* %10, i64 0, i64 0
  %63 = call i32 @strcmp(i8* %61, i8* %62) #4
  %64 = icmp eq i32 %63, 0
  br i1 %64, label %65, label %66

65:                                               ; preds = %55
  store i32 1, i32* %5, align 4
  br label %69

66:                                               ; preds = %55
  %67 = load i32, i32* %4, align 4
  %68 = add nsw i32 %67, 1
  store i32 %68, i32* %4, align 4
  br label %32

69:                                               ; preds = %65, %32
  %70 = load i32, i32* %5, align 4
  %71 = icmp eq i32 %70, 0
  br i1 %71, label %72, label %75

72:                                               ; preds = %69
  %73 = getelementptr inbounds [256 x i8], [256 x i8]* %11, i64 0, i64 0
  %74 = call i32 @puts(i8* %73)
  br label %97

75:                                               ; preds = %69
  %76 = load i32, i32* %8, align 4
  store i32 %76, i32* %9, align 4
  store i32 0, i32* %6, align 4
  br label %77

77:                                               ; preds = %89, %75
  %78 = load i32, i32* %6, align 4
  %79 = load i32, i32* %1, align 4
  %80 = icmp slt i32 %78, %79
  br i1 %80, label %81, label %94

81:                                               ; preds = %77
  %82 = load i32, i32* %6, align 4
  %83 = sext i32 %82 to i64
  %84 = getelementptr inbounds [256 x i8], [256 x i8]* %14, i64 0, i64 %83
  %85 = load i8, i8* %84, align 1
  %86 = load i32, i32* %9, align 4
  %87 = sext i32 %86 to i64
  %88 = getelementptr inbounds [256 x i8], [256 x i8]* %11, i64 0, i64 %87
  store i8 %85, i8* %88, align 1
  br label %89

89:                                               ; preds = %81
  %90 = load i32, i32* %6, align 4
  %91 = add nsw i32 %90, 1
  store i32 %91, i32* %6, align 4
  %92 = load i32, i32* %9, align 4
  %93 = add nsw i32 %92, 1
  store i32 %93, i32* %9, align 4
  br label %77

94:                                               ; preds = %77
  %95 = getelementptr inbounds [256 x i8], [256 x i8]* %11, i64 0, i64 0
  %96 = call i32 @puts(i8* %95)
  br label %97

97:                                               ; preds = %94, %72
  ret void
}

; Function Attrs: argmemonly nounwind willreturn
declare void @llvm.memset.p0i8.i64(i8* nocapture writeonly, i8, i64, i1 immarg) #1

declare dso_local i32 @gets(...) #2

; Function Attrs: nounwind readonly
declare dso_local i64 @strlen(i8*) #3

; Function Attrs: nounwind readonly
declare dso_local i32 @strcmp(i8*, i8*) #3

declare dso_local i32 @puts(i8*) #2


!llvm.module.flags = !{!0}
!llvm.ident = !{!1}

!0 = !{i32 1, !"wchar_size", i32 4}
!1 = !{!"clang version 10.0.0-4ubuntu1 "}
